; Function Attrs: mustprogress uwtable
define hidden noundef ptr @assimp_stbi_loadf_from_file(ptr noundef %f, ptr nocapture noundef %x, ptr nocapture noundef %y, ptr noundef %comp, i32 noundef %req_comp) local_unnamed_addr #3 {
entry:
  %s = alloca %struct.stbi__context, align 8
  %io.i.i = getelementptr inbounds i8, ptr %s, i64 16
  call void @llvm.memcpy.p0.p0.i64(ptr noundef nonnull align 8 dereferenceable(24) %io.i.i, ptr noundef nonnull align 8 dereferenceable(24) @_ZL21stbi__stdio_callbacks, i64 24, i1 false)
  %io_user_data.i.i = getelementptr inbounds i8, ptr %s, i64 40
  store ptr %f, ptr %io_user_data.i.i, align 8
  %buflen.i.i = getelementptr inbounds i8, ptr %s, i64 52
  store i32 128, ptr %buflen.i.i, align 4
  %read_from_callbacks.i.i = getelementptr inbounds i8, ptr %s, i64 48
  store i32 1, ptr %read_from_callbacks.i.i, align 8
  %callback_already_read.i.i = getelementptr inbounds i8, ptr %s, i64 184
  store i32 0, ptr %callback_already_read.i.i, align 8
  %buffer_start.i.i = getelementptr inbounds i8, ptr %s, i64 56
  %img_buffer_original.i.i = getelementptr inbounds i8, ptr %s, i64 208
  store ptr %buffer_start.i.i, ptr %img_buffer_original.i.i, align 8
  %img_buffer.i.i = getelementptr inbounds i8, ptr %s, i64 192
  store ptr %buffer_start.i.i, ptr %img_buffer.i.i, align 8
  %0 = load ptr, ptr %io.i.i, align 8
  %call.i.i.i = call noundef i32 %0(ptr noundef %f, ptr noundef nonnull %buffer_start.i.i, i32 noundef 128)
  %1 = load ptr, ptr %img_buffer.i.i, align 8
  %2 = load ptr, ptr %img_buffer_original.i.i, align 8
  %sub.ptr.lhs.cast.i.i.i = ptrtoint ptr %1 to i64
  %sub.ptr.rhs.cast.i.i.i = ptrtoint ptr %2 to i64
  %sub.ptr.sub.i.i.i = sub i64 %sub.ptr.lhs.cast.i.i.i, %sub.ptr.rhs.cast.i.i.i
  %conv.i.i.i = trunc i64 %sub.ptr.sub.i.i.i to i32
  %3 = load i32, ptr %callback_already_read.i.i, align 8
  %add.i.i.i = add nsw i32 %3, %conv.i.i.i
  store i32 %add.i.i.i, ptr %callback_already_read.i.i, align 8
  %cmp.i.i.i = icmp eq i32 %call.i.i.i, 0
  br i1 %cmp.i.i.i, label %if.then.i.i.i, label %if.else.i.i.i

if.then.i.i.i:                                    ; preds = %entry
  store i32 0, ptr %read_from_callbacks.i.i, align 8
  %add.ptr.i.i.i = getelementptr inbounds i8, ptr %s, i64 57
  store i8 0, ptr %buffer_start.i.i, align 8
  br label %_ZL16stbi__start_fileP13stbi__contextP8_IO_FILE.exit

if.else.i.i.i:                                    ; preds = %entry
  %idx.ext.i.i.i = sext i32 %call.i.i.i to i64
  %add.ptr12.i.i.i = getelementptr inbounds i8, ptr %buffer_start.i.i, i64 %idx.ext.i.i.i
  br label %_ZL16stbi__start_fileP13stbi__contextP8_IO_FILE.exit

_ZL16stbi__start_fileP13stbi__contextP8_IO_FILE.exit: ; preds = %if.then.i.i.i, %if.else.i.i.i
  %add.ptr12.sink.i.i.i = phi ptr [ %add.ptr.i.i.i, %if.then.i.i.i ], [ %add.ptr12.i.i.i, %if.else.i.i.i ]
  store ptr %buffer_start.i.i, ptr %img_buffer.i.i, align 8
  %4 = getelementptr inbounds i8, ptr %s, i64 200
  store ptr %add.ptr12.sink.i.i.i, ptr %4, align 8
  %img_buffer_original_end.i.i = getelementptr inbounds i8, ptr %s, i64 216
  store ptr %add.ptr12.sink.i.i.i, ptr %img_buffer_original_end.i.i, align 8
  %call = call fastcc noundef ptr @_ZL16stbi__loadf_mainP13stbi__contextPiS1_S1_i(ptr noundef nonnull %s, ptr noundef %x, ptr noundef %y, ptr noundef %comp, i32 noundef %req_comp)
  ret ptr %call
}